# SymbolsHelper-Confirmed: 5.78.0 armel armhf riscv64
libKF5SyntaxHighlighting.so.5 libkf5syntaxhighlighting5 #MINVER#
* Build-Depends-Package: libkf5syntaxhighlighting-dev
 _ZN19KSyntaxHighlighting10Definition14setKeywordListERK7QStringRK11QStringList@Base 5.62.0
 _ZN19KSyntaxHighlighting10DefinitionC1EOSt10shared_ptrINS_14DefinitionDataEE@Base 5.74.0
 _ZN19KSyntaxHighlighting10DefinitionC1ERKS0_@Base 5.28.0
 _ZN19KSyntaxHighlighting10DefinitionC1Ev@Base 5.28.0
 _ZN19KSyntaxHighlighting10DefinitionC2EOSt10shared_ptrINS_14DefinitionDataEE@Base 5.74.0
 _ZN19KSyntaxHighlighting10DefinitionC2ERKS0_@Base 5.28.0
 _ZN19KSyntaxHighlighting10DefinitionC2Ev@Base 5.28.0
 _ZN19KSyntaxHighlighting10DefinitionD1Ev@Base 5.28.0
 _ZN19KSyntaxHighlighting10DefinitionD2Ev@Base 5.28.0
 _ZN19KSyntaxHighlighting10DefinitionaSERKS0_@Base 5.28.0
 _ZN19KSyntaxHighlighting10Repository12defaultThemeENS0_12DefaultThemeE@Base 5.28.0
 _ZN19KSyntaxHighlighting10Repository15themeForPaletteERK8QPalette@Base 5.77.0
 _ZN19KSyntaxHighlighting10Repository19addCustomSearchPathERK7QString@Base 5.41.0
 _ZN19KSyntaxHighlighting10Repository6reloadEv@Base 5.28.0
 _ZN19KSyntaxHighlighting10RepositoryC1Ev@Base 5.28.0
 _ZN19KSyntaxHighlighting10RepositoryC2Ev@Base 5.28.0
 _ZN19KSyntaxHighlighting10RepositoryD1Ev@Base 5.28.0
 _ZN19KSyntaxHighlighting10RepositoryD2Ev@Base 5.28.0
 _ZN19KSyntaxHighlighting13FoldingRegionC1ENS0_4TypeEt@Base 5.28.0
 _ZN19KSyntaxHighlighting13FoldingRegionC1Ev@Base 5.28.0
 _ZN19KSyntaxHighlighting13FoldingRegionC2ENS0_4TypeEt@Base 5.28.0
 _ZN19KSyntaxHighlighting13FoldingRegionC2Ev@Base 5.28.0
 _ZN19KSyntaxHighlighting15AnsiHighlighter11applyFormatEiiRKNS_6FormatE@Base 5.77.0
 _ZN19KSyntaxHighlighting15AnsiHighlighter13highlightDataEP9QIODeviceNS0_10AnsiFormatEb6QFlagsINS0_11TraceOptionEE@Base 5.77.0
 _ZN19KSyntaxHighlighting15AnsiHighlighter13highlightFileERK7QStringNS0_10AnsiFormatEb6QFlagsINS0_11TraceOptionEE@Base 5.77.0
 _ZN19KSyntaxHighlighting15AnsiHighlighter13setOutputFileEP8_IO_FILE@Base 5.77.0
 _ZN19KSyntaxHighlighting15AnsiHighlighter13setOutputFileERK7QString@Base 5.77.0
 _ZN19KSyntaxHighlighting15AnsiHighlighterC1Ev@Base 5.77.0
 _ZN19KSyntaxHighlighting15AnsiHighlighterC2Ev@Base 5.77.0
 _ZN19KSyntaxHighlighting15AnsiHighlighterD0Ev@Base 5.77.0
 _ZN19KSyntaxHighlighting15AnsiHighlighterD1Ev@Base 5.77.0
 _ZN19KSyntaxHighlighting15AnsiHighlighterD2Ev@Base 5.77.0
 _ZN19KSyntaxHighlighting15HtmlHighlighter11applyFormatEiiRKNS_6FormatE@Base 5.28.0
 _ZN19KSyntaxHighlighting15HtmlHighlighter13highlightDataEP9QIODeviceRK7QString@Base 5.51.0
 _ZN19KSyntaxHighlighting15HtmlHighlighter13highlightFileERK7QStringS3_@Base 5.51.0
 _ZN19KSyntaxHighlighting15HtmlHighlighter13setOutputFileEP8_IO_FILE@Base 5.28.0
 _ZN19KSyntaxHighlighting15HtmlHighlighter13setOutputFileERK7QString@Base 5.28.0
 _ZN19KSyntaxHighlighting15HtmlHighlighterC1Ev@Base 5.28.0
 _ZN19KSyntaxHighlighting15HtmlHighlighterC2Ev@Base 5.28.0
 _ZN19KSyntaxHighlighting15HtmlHighlighterD0Ev@Base 5.28.0
 _ZN19KSyntaxHighlighting15HtmlHighlighterD1Ev@Base 5.28.0
 _ZN19KSyntaxHighlighting15HtmlHighlighterD2Ev@Base 5.28.0
 _ZN19KSyntaxHighlighting17SyntaxHighlighter11applyFormatEiiRKNS_6FormatE@Base 5.28.0
 _ZN19KSyntaxHighlighting17SyntaxHighlighter11qt_metacallEN11QMetaObject4CallEiPPv@Base 5.28.0
 _ZN19KSyntaxHighlighting17SyntaxHighlighter11qt_metacastEPKc@Base 5.28.0
 _ZN19KSyntaxHighlighting17SyntaxHighlighter12applyFoldingEiiNS_13FoldingRegionE@Base 5.28.0
 _ZN19KSyntaxHighlighting17SyntaxHighlighter13setDefinitionERKNS_10DefinitionE@Base 5.28.0
 _ZN19KSyntaxHighlighting17SyntaxHighlighter14highlightBlockERK7QString@Base 5.28.0
 _ZN19KSyntaxHighlighting17SyntaxHighlighter16staticMetaObjectE@Base 5.28.0
 _ZN19KSyntaxHighlighting17SyntaxHighlighterC1EP13QTextDocument@Base 5.28.0
 _ZN19KSyntaxHighlighting17SyntaxHighlighterC1EP7QObject@Base 5.28.0
 _ZN19KSyntaxHighlighting17SyntaxHighlighterC2EP13QTextDocument@Base 5.28.0
 _ZN19KSyntaxHighlighting17SyntaxHighlighterC2EP7QObject@Base 5.28.0
 _ZN19KSyntaxHighlighting17SyntaxHighlighterD0Ev@Base 5.28.0
 _ZN19KSyntaxHighlighting17SyntaxHighlighterD1Ev@Base 5.28.0
 _ZN19KSyntaxHighlighting17SyntaxHighlighterD2Ev@Base 5.28.0
 _ZN19KSyntaxHighlighting19AbstractHighlighter12applyFoldingEiiNS_13FoldingRegionE@Base 5.28.0
 _ZN19KSyntaxHighlighting19AbstractHighlighter13highlightLineERK7QStringRKNS_5StateE@Base 5.28.0
 _ZN19KSyntaxHighlighting19AbstractHighlighter13setDefinitionERKNS_10DefinitionE@Base 5.28.0
 _ZN19KSyntaxHighlighting19AbstractHighlighter8setThemeERKNS_5ThemeE@Base 5.28.0
 _ZN19KSyntaxHighlighting19AbstractHighlighterC1EPNS_26AbstractHighlighterPrivateE@Base 5.28.0
 _ZN19KSyntaxHighlighting19AbstractHighlighterC1Ev@Base 5.28.0
 _ZN19KSyntaxHighlighting19AbstractHighlighterC2EPNS_26AbstractHighlighterPrivateE@Base 5.28.0
 _ZN19KSyntaxHighlighting19AbstractHighlighterC2Ev@Base 5.28.0
 _ZN19KSyntaxHighlighting19AbstractHighlighterD0Ev@Base 5.28.0
 _ZN19KSyntaxHighlighting19AbstractHighlighterD1Ev@Base 5.28.0
 _ZN19KSyntaxHighlighting19AbstractHighlighterD2Ev@Base 5.28.0
 _ZN19KSyntaxHighlighting20DefinitionDownloader11qt_metacallEN11QMetaObject4CallEiPPv@Base 5.28.0
 _ZN19KSyntaxHighlighting20DefinitionDownloader11qt_metacastEPKc@Base 5.28.0
 _ZN19KSyntaxHighlighting20DefinitionDownloader16staticMetaObjectE@Base 5.28.0
 _ZN19KSyntaxHighlighting20DefinitionDownloader18informationMessageERK7QString@Base 5.28.0
 _ZN19KSyntaxHighlighting20DefinitionDownloader4doneEv@Base 5.28.0
 _ZN19KSyntaxHighlighting20DefinitionDownloader5startEv@Base 5.28.0
 _ZN19KSyntaxHighlighting20DefinitionDownloaderC1EPNS_10RepositoryEP7QObject@Base 5.28.0
 _ZN19KSyntaxHighlighting20DefinitionDownloaderC2EPNS_10RepositoryEP7QObject@Base 5.28.0
 _ZN19KSyntaxHighlighting20DefinitionDownloaderD0Ev@Base 5.28.0
 _ZN19KSyntaxHighlighting20DefinitionDownloaderD1Ev@Base 5.28.0
 _ZN19KSyntaxHighlighting20DefinitionDownloaderD2Ev@Base 5.28.0
 _ZN19KSyntaxHighlighting5StateC1ERKS0_@Base 5.28.0
 _ZN19KSyntaxHighlighting5StateC1Ev@Base 5.28.0
 _ZN19KSyntaxHighlighting5StateC2ERKS0_@Base 5.28.0
 _ZN19KSyntaxHighlighting5StateC2Ev@Base 5.28.0
 _ZN19KSyntaxHighlighting5StateD1Ev@Base 5.28.0
 _ZN19KSyntaxHighlighting5StateD2Ev@Base 5.28.0
 _ZN19KSyntaxHighlighting5StateaSERKS0_@Base 5.28.0
 _ZN19KSyntaxHighlighting5Theme16staticMetaObjectE@Base 5.28.0
 _ZN19KSyntaxHighlighting5ThemeC1EPNS_9ThemeDataE@Base 5.28.0
 _ZN19KSyntaxHighlighting5ThemeC1ERKS0_@Base 5.28.0
 _ZN19KSyntaxHighlighting5ThemeC1Ev@Base 5.28.0
 _ZN19KSyntaxHighlighting5ThemeC2EPNS_9ThemeDataE@Base 5.28.0
 _ZN19KSyntaxHighlighting5ThemeC2ERKS0_@Base 5.28.0
 _ZN19KSyntaxHighlighting5ThemeC2Ev@Base 5.28.0
 _ZN19KSyntaxHighlighting5ThemeD1Ev@Base 5.28.0
 _ZN19KSyntaxHighlighting5ThemeD2Ev@Base 5.28.0
 _ZN19KSyntaxHighlighting5ThemeaSERKS0_@Base 5.28.0
 _ZN19KSyntaxHighlighting6FormatC1ERKS0_@Base 5.28.0
 _ZN19KSyntaxHighlighting6FormatC1Ev@Base 5.28.0
 _ZN19KSyntaxHighlighting6FormatC2ERKS0_@Base 5.28.0
 _ZN19KSyntaxHighlighting6FormatC2Ev@Base 5.28.0
 _ZN19KSyntaxHighlighting6FormatD1Ev@Base 5.28.0
 _ZN19KSyntaxHighlighting6FormatD2Ev@Base 5.28.0
 _ZN19KSyntaxHighlighting6FormataSERKS0_@Base 5.28.0
 _ZNK19KSyntaxHighlighting10Definition10extensionsEv@Base 5.28.0
 _ZNK19KSyntaxHighlighting10Definition11keywordListERK7QString@Base 5.49.0
 _ZNK19KSyntaxHighlighting10Definition12keywordListsEv@Base 5.49.0
 _ZNK19KSyntaxHighlighting10Definition14foldingEnabledEv@Base 5.51.0
 _ZNK19KSyntaxHighlighting10Definition14translatedNameEv@Base 5.28.0
 _ZNK19KSyntaxHighlighting10Definition15isWordDelimiterE5QChar@Base 5.51.0
 _ZNK19KSyntaxHighlighting10Definition17foldingIgnoreListEv@Base 5.28.0
 _ZNK19KSyntaxHighlighting10Definition17translatedSectionEv@Base 5.28.0
 _ZNK19KSyntaxHighlighting10Definition18characterEncodingsEv@Base 5.51.0
 _ZNK19KSyntaxHighlighting10Definition19includedDefinitionsEv@Base 5.49.0
 _ZNK19KSyntaxHighlighting10Definition19isWordWrapDelimiterE5QChar@Base 5.51.0
 _ZNK19KSyntaxHighlighting10Definition22multiLineCommentMarkerEv@Base 5.51.0
 _ZNK19KSyntaxHighlighting10Definition23singleLineCommentMarkerEv@Base 5.51.0
 _ZNK19KSyntaxHighlighting10Definition25singleLineCommentPositionEv@Base 5.51.0
 _ZNK19KSyntaxHighlighting10Definition30indentationBasedFoldingEnabledEv@Base 5.28.0
 _ZNK19KSyntaxHighlighting10Definition4nameEv@Base 5.28.0
 _ZNK19KSyntaxHighlighting10Definition5styleEv@Base 5.28.0
 _ZNK19KSyntaxHighlighting10Definition6authorEv@Base 5.28.0
 _ZNK19KSyntaxHighlighting10Definition7formatsEv@Base 5.49.0
 _ZNK19KSyntaxHighlighting10Definition7isValidEv@Base 5.28.0
 _ZNK19KSyntaxHighlighting10Definition7licenseEv@Base 5.28.0
 _ZNK19KSyntaxHighlighting10Definition7sectionEv@Base 5.28.0
 _ZNK19KSyntaxHighlighting10Definition7versionEv@Base 5.28.0
 _ZNK19KSyntaxHighlighting10Definition8filePathEv@Base 5.28.0
 _ZNK19KSyntaxHighlighting10Definition8indenterEv@Base 5.28.0
 _ZNK19KSyntaxHighlighting10Definition8isHiddenEv@Base 5.28.0
 _ZNK19KSyntaxHighlighting10Definition8priorityEv@Base 5.28.0
 _ZNK19KSyntaxHighlighting10Definition9mimeTypesEv@Base 5.28.0
 _ZNK19KSyntaxHighlighting10DefinitioneqERKS0_@Base 5.28.0
 _ZNK19KSyntaxHighlighting10DefinitionneERKS0_@Base 5.28.0
 _ZNK19KSyntaxHighlighting10Repository11definitionsEv@Base 5.28.0
 _ZNK19KSyntaxHighlighting10Repository12defaultThemeENS0_12DefaultThemeE@Base 5.79.0
 _ZNK19KSyntaxHighlighting10Repository15themeForPaletteERK8QPalette@Base 5.79.0
 _ZNK19KSyntaxHighlighting10Repository17customSearchPathsEv@Base 5.41.0
 _ZNK19KSyntaxHighlighting10Repository17definitionForNameERK7QString@Base 5.28.0
 _ZNK19KSyntaxHighlighting10Repository21definitionForFileNameERK7QString@Base 5.28.0
 _ZNK19KSyntaxHighlighting10Repository21definitionForMimeTypeERK7QString@Base 5.51.0
 _ZNK19KSyntaxHighlighting10Repository22definitionsForFileNameERK7QString@Base 5.61.0
 _ZNK19KSyntaxHighlighting10Repository22definitionsForMimeTypeERK7QString@Base 5.61.0
 _ZNK19KSyntaxHighlighting10Repository5themeERK7QString@Base 5.28.0
 _ZNK19KSyntaxHighlighting10Repository6themesEv@Base 5.28.0
 _ZNK19KSyntaxHighlighting13FoldingRegion2idEv@Base 5.28.0
 _ZNK19KSyntaxHighlighting13FoldingRegion4typeEv@Base 5.28.0
 _ZNK19KSyntaxHighlighting13FoldingRegion7isValidEv@Base 5.28.0
 _ZNK19KSyntaxHighlighting13FoldingRegioneqERKS0_@Base 5.28.0
 _ZNK19KSyntaxHighlighting17SyntaxHighlighter10metaObjectEv@Base 5.28.0
 _ZNK19KSyntaxHighlighting17SyntaxHighlighter19startsFoldingRegionERK10QTextBlock@Base 5.28.0
 _ZNK19KSyntaxHighlighting17SyntaxHighlighter20findFoldingRegionEndERK10QTextBlock@Base 5.28.0
 _ZNK19KSyntaxHighlighting19AbstractHighlighter10definitionEv@Base 5.28.0
 _ZNK19KSyntaxHighlighting19AbstractHighlighter5themeEv@Base 5.28.0
 _ZNK19KSyntaxHighlighting20DefinitionDownloader10metaObjectEv@Base 5.28.0
 _ZNK19KSyntaxHighlighting5State30indentationBasedFoldingEnabledEv@Base 5.28.0
 _ZNK19KSyntaxHighlighting5StateeqERKS0_@Base 5.28.0
 _ZNK19KSyntaxHighlighting5StateneERKS0_@Base 5.28.0
 _ZNK19KSyntaxHighlighting5Theme10isReadOnlyEv@Base 5.28.0
 _ZNK19KSyntaxHighlighting5Theme11editorColorENS0_15EditorColorRoleE@Base 5.28.0
 _ZNK19KSyntaxHighlighting5Theme11isUnderlineENS0_9TextStyleE@Base 5.28.0
 _ZNK19KSyntaxHighlighting5Theme14translatedNameEv@Base 5.28.0
 _ZNK19KSyntaxHighlighting5Theme15backgroundColorENS0_9TextStyleE@Base 5.28.0
 _ZNK19KSyntaxHighlighting5Theme15isStrikeThroughENS0_9TextStyleE@Base 5.28.0
 _ZNK19KSyntaxHighlighting5Theme17selectedTextColorENS0_9TextStyleE@Base 5.28.0
 _ZNK19KSyntaxHighlighting5Theme23selectedBackgroundColorENS0_9TextStyleE@Base 5.28.0
 _ZNK19KSyntaxHighlighting5Theme4nameEv@Base 5.28.0
 _ZNK19KSyntaxHighlighting5Theme6isBoldENS0_9TextStyleE@Base 5.28.0
 _ZNK19KSyntaxHighlighting5Theme7isValidEv@Base 5.28.0
 _ZNK19KSyntaxHighlighting5Theme8filePathEv@Base 5.28.0
 _ZNK19KSyntaxHighlighting5Theme8isItalicENS0_9TextStyleE@Base 5.28.0
 _ZNK19KSyntaxHighlighting5Theme9textColorENS0_9TextStyleE@Base 5.28.0
 _ZNK19KSyntaxHighlighting6Format10spellCheckEv@Base 5.28.0
 _ZNK19KSyntaxHighlighting6Format11isUnderlineERKNS_5ThemeE@Base 5.28.0
 _ZNK19KSyntaxHighlighting6Format12hasTextColorERKNS_5ThemeE@Base 5.28.0
 _ZNK19KSyntaxHighlighting6Format15backgroundColorERKNS_5ThemeE@Base 5.28.0
 _ZNK19KSyntaxHighlighting6Format15hasBoldOverrideEv@Base 5.62.0
 _ZNK19KSyntaxHighlighting6Format15isStrikeThroughERKNS_5ThemeE@Base 5.28.0
 _ZNK19KSyntaxHighlighting6Format17hasItalicOverrideEv@Base 5.62.0
 _ZNK19KSyntaxHighlighting6Format17selectedTextColorERKNS_5ThemeE@Base 5.28.0
 _ZNK19KSyntaxHighlighting6Format18hasBackgroundColorERKNS_5ThemeE@Base 5.28.0
 _ZNK19KSyntaxHighlighting6Format18isDefaultTextStyleERKNS_5ThemeE@Base 5.28.0
 _ZNK19KSyntaxHighlighting6Format20hasTextColorOverrideEv@Base 5.62.0
 _ZNK19KSyntaxHighlighting6Format20hasUnderlineOverrideEv@Base 5.62.0
 _ZNK19KSyntaxHighlighting6Format23selectedBackgroundColorERKNS_5ThemeE@Base 5.28.0
 _ZNK19KSyntaxHighlighting6Format24hasStrikeThroughOverrideEv@Base 5.62.0
 _ZNK19KSyntaxHighlighting6Format26hasBackgroundColorOverrideEv@Base 5.62.0
 _ZNK19KSyntaxHighlighting6Format28hasSelectedTextColorOverrideEv@Base 5.62.0
 _ZNK19KSyntaxHighlighting6Format2idEv@Base 5.28.0
 _ZNK19KSyntaxHighlighting6Format34hasSelectedBackgroundColorOverrideEv@Base 5.62.0
 _ZNK19KSyntaxHighlighting6Format4nameEv@Base 5.28.0
 _ZNK19KSyntaxHighlighting6Format6isBoldERKNS_5ThemeE@Base 5.28.0
 _ZNK19KSyntaxHighlighting6Format7isValidEv@Base 5.28.0
 _ZNK19KSyntaxHighlighting6Format8isItalicERKNS_5ThemeE@Base 5.28.0
 _ZNK19KSyntaxHighlighting6Format9textColorERKNS_5ThemeE@Base 5.28.0
 _ZNK19KSyntaxHighlighting6Format9textStyleEv@Base 5.49.0
 _ZTIN19KSyntaxHighlighting15AnsiHighlighterE@Base 5.77.0
 _ZTIN19KSyntaxHighlighting15HtmlHighlighterE@Base 5.28.0
 _ZTIN19KSyntaxHighlighting17SyntaxHighlighterE@Base 5.28.0
 _ZTIN19KSyntaxHighlighting19AbstractHighlighterE@Base 5.28.0
 _ZTIN19KSyntaxHighlighting20DefinitionDownloaderE@Base 5.28.0
 (arch=armel riscv64)_ZTIN9__gnu_cxx7__mutexE@Base 5.28.0
 (arch=armel riscv64)_ZTISt11_Mutex_baseILN9__gnu_cxx12_Lock_policyE1EE@Base 5.28.0
 (arch=!armel !riscv64)_ZTISt11_Mutex_baseILN9__gnu_cxx12_Lock_policyE2EE@Base 5.28.0
 (arch=armel riscv64)_ZTISt16_Sp_counted_baseILN9__gnu_cxx12_Lock_policyE1EE@Base 5.28.0
 (arch=!armel !riscv64)_ZTISt16_Sp_counted_baseILN9__gnu_cxx12_Lock_policyE2EE@Base 5.28.0
 _ZTSN19KSyntaxHighlighting15AnsiHighlighterE@Base 5.77.0
 _ZTSN19KSyntaxHighlighting15HtmlHighlighterE@Base 5.28.0
 _ZTSN19KSyntaxHighlighting17SyntaxHighlighterE@Base 5.28.0
 _ZTSN19KSyntaxHighlighting19AbstractHighlighterE@Base 5.28.0
 _ZTSN19KSyntaxHighlighting20DefinitionDownloaderE@Base 5.28.0
 (arch=armel riscv64)_ZTSN9__gnu_cxx7__mutexE@Base 5.62.0
 (arch=armel riscv64)_ZTSSt11_Mutex_baseILN9__gnu_cxx12_Lock_policyE1EE@Base 5.28.0
 (arch=!armel !riscv64)_ZTSSt11_Mutex_baseILN9__gnu_cxx12_Lock_policyE2EE@Base 5.28.0
 (arch=armel riscv64)_ZTSSt16_Sp_counted_baseILN9__gnu_cxx12_Lock_policyE1EE@Base 5.28.0
 (arch=!armel !riscv64)_ZTSSt16_Sp_counted_baseILN9__gnu_cxx12_Lock_policyE2EE@Base 5.28.0
 _ZTSSt19_Sp_make_shared_tag@Base 5.74.0
 _ZTVN19KSyntaxHighlighting15AnsiHighlighterE@Base 5.77.0
 _ZTVN19KSyntaxHighlighting15HtmlHighlighterE@Base 5.28.0
 _ZTVN19KSyntaxHighlighting17SyntaxHighlighterE@Base 5.28.0
 _ZTVN19KSyntaxHighlighting19AbstractHighlighterE@Base 5.28.0
 _ZTVN19KSyntaxHighlighting20DefinitionDownloaderE@Base 5.28.0
 _ZZNSt19_Sp_make_shared_tag5_S_tiEvE5__tag@Base 5.74.0
 (c++)"non-virtual thunk to KSyntaxHighlighting::SyntaxHighlighter::applyFolding(int, int, KSyntaxHighlighting::FoldingRegion)@Base" 5.28.0
 (c++)"non-virtual thunk to KSyntaxHighlighting::SyntaxHighlighter::applyFormat(int, int, KSyntaxHighlighting::Format const&)@Base" 5.28.0
 (c++)"non-virtual thunk to KSyntaxHighlighting::SyntaxHighlighter::setDefinition(KSyntaxHighlighting::Definition const&)@Base" 5.28.0
 (c++)"non-virtual thunk to KSyntaxHighlighting::SyntaxHighlighter::~SyntaxHighlighter()@Base" 5.28.0
